target datalayout = "e-m:e-p270:32:32-p271:32:32-p272:64:64-i64:64-i128:128-f80:128-n8:16:32:64-S128"
target triple = "x86_64-pc-linux-gnu"

%struct._cms_iccprofile_struct = type { ptr, ptr, %struct.tm, i32, i32, i32, i32, i32, i32, i32, i32, i32, i32, i64, i32, %union.cmsProfileID, i32, [100 x i32], [100 x i32], [100 x i32], [100 x i32], [100 x i32], [100 x ptr], [100 x ptr], i32, ptr }
%struct.tm = type { i32, i32, i32, i32, i32, i32, i32, i32, i32, i64, ptr }
%union.cmsProfileID = type { [4 x i32] }
%struct._cms_typehandler_struct = type { i32, ptr, ptr, ptr, ptr, ptr, i32 }

@.str.12 = private unnamed_addr constant [19 x i8] c"Too many tags (%d)\00", align 1

; Function Attrs: nounwind uwtable
define internal i32 @SearchOneTag(ptr noundef %0, i32 noundef %1) #0 {
  %3 = alloca i32, align 4
  %4 = alloca ptr, align 8
  %5 = alloca i32, align 4
  %6 = alloca i32, align 4
  store ptr %0, ptr %4, align 8
  store i32 %1, ptr %5, align 4
  store i32 0, ptr %6, align 4
  br label %7

7:                                                ; preds = %25, %2
  %8 = load i32, ptr %6, align 4
  %9 = load ptr, ptr %4, align 8
  %10 = getelementptr inbounds %struct._cms_iccprofile_struct, ptr %9, i32 0, i32 16
  %11 = load i32, ptr %10, align 4
  %12 = icmp slt i32 %8, %11
  br i1 %12, label %13, label %28

13:                                               ; preds = %7
  %14 = load i32, ptr %5, align 4
  %15 = load ptr, ptr %4, align 8
  %16 = getelementptr inbounds %struct._cms_iccprofile_struct, ptr %15, i32 0, i32 17
  %17 = load i32, ptr %6, align 4
  %18 = sext i32 %17 to i64
  %19 = getelementptr inbounds [100 x i32], ptr %16, i64 0, i64 %18
  %20 = load i32, ptr %19, align 4
  %21 = icmp eq i32 %14, %20
  br i1 %21, label %22, label %24

22:                                               ; preds = %13
  %23 = load i32, ptr %6, align 4
  store i32 %23, ptr %3, align 4
  br label %29

24:                                               ; preds = %13
  br label %25

25:                                               ; preds = %24
  %26 = load i32, ptr %6, align 4
  %27 = add nsw i32 %26, 1
  store i32 %27, ptr %6, align 4
  br label %7, !llvm.loop !9

28:                                               ; preds = %7
  store i32 -1, ptr %3, align 4
  br label %29

29:                                               ; preds = %28, %22
  %30 = load i32, ptr %3, align 4
  ret i32 %30
}

; Function Attrs: nounwind uwtable
define internal void @_cmsDeleteTagByPos(ptr noundef %0, i32 noundef %1) #0 {
  %3 = alloca ptr, align 8
  %4 = alloca i32, align 4
  %5 = alloca ptr, align 8
  %6 = alloca %struct._cms_typehandler_struct, align 8
  store ptr %0, ptr %3, align 8
  store i32 %1, ptr %4, align 4
  %7 = load ptr, ptr %3, align 8
  %8 = getelementptr inbounds %struct._cms_iccprofile_struct, ptr %7, i32 0, i32 22
  %9 = load i32, ptr %4, align 4
  %10 = sext i32 %9 to i64
  %11 = getelementptr inbounds [100 x ptr], ptr %8, i64 0, i64 %10
  %12 = load ptr, ptr %11, align 8
  %13 = icmp ne ptr %12, null
  br i1 %13, label %14, label %66

14:                                               ; preds = %2
  %15 = load ptr, ptr %3, align 8
  %16 = getelementptr inbounds %struct._cms_iccprofile_struct, ptr %15, i32 0, i32 21
  %17 = load i32, ptr %4, align 4
  %18 = sext i32 %17 to i64
  %19 = getelementptr inbounds [100 x i32], ptr %16, i64 0, i64 %18
  %20 = load i32, ptr %19, align 4
  %21 = icmp ne i32 %20, 0
  br i1 %21, label %22, label %32

22:                                               ; preds = %14
  %23 = load ptr, ptr %3, align 8
  %24 = getelementptr inbounds %struct._cms_iccprofile_struct, ptr %23, i32 0, i32 1
  %25 = load ptr, ptr %24, align 8
  %26 = load ptr, ptr %3, align 8
  %27 = getelementptr inbounds %struct._cms_iccprofile_struct, ptr %26, i32 0, i32 22
  %28 = load i32, ptr %4, align 4
  %29 = sext i32 %28 to i64
  %30 = getelementptr inbounds [100 x ptr], ptr %27, i64 0, i64 %29
  %31 = load ptr, ptr %30, align 8
  call void @_cmsFree(ptr noundef %25, ptr noundef %31)
  br label %65

32:                                               ; preds = %14
  %33 = load ptr, ptr %3, align 8
  %34 = getelementptr inbounds %struct._cms_iccprofile_struct, ptr %33, i32 0, i32 23
  %35 = load i32, ptr %4, align 4
  %36 = sext i32 %35 to i64
  %37 = getelementptr inbounds [100 x ptr], ptr %34, i64 0, i64 %36
  %38 = load ptr, ptr %37, align 8
  store ptr %38, ptr %5, align 8
  %39 = load ptr, ptr %5, align 8
  %40 = icmp ne ptr %39, null
  br i1 %40, label %41, label %64

41:                                               ; preds = %32
  %42 = load ptr, ptr %5, align 8
  call void @llvm.memcpy.p0.p0.i64(ptr align 8 %6, ptr align 8 %42, i64 56, i1 false)
  %43 = load ptr, ptr %3, align 8
  %44 = getelementptr inbounds %struct._cms_iccprofile_struct, ptr %43, i32 0, i32 1
  %45 = load ptr, ptr %44, align 8
  %46 = getelementptr inbounds %struct._cms_typehandler_struct, ptr %6, i32 0, i32 5
  store ptr %45, ptr %46, align 8
  %47 = load ptr, ptr %3, align 8
  %48 = getelementptr inbounds %struct._cms_iccprofile_struct, ptr %47, i32 0, i32 4
  %49 = load i32, ptr %48, align 4
  %50 = getelementptr inbounds %struct._cms_typehandler_struct, ptr %6, i32 0, i32 6
  store i32 %49, ptr %50, align 8
  %51 = getelementptr inbounds %struct._cms_typehandler_struct, ptr %6, i32 0, i32 4
  %52 = load ptr, ptr %51, align 8
  %53 = load ptr, ptr %3, align 8
  %54 = getelementptr inbounds %struct._cms_iccprofile_struct, ptr %53, i32 0, i32 22
  %55 = load i32, ptr %4, align 4
  %56 = sext i32 %55 to i64
  %57 = getelementptr inbounds [100 x ptr], ptr %54, i64 0, i64 %56
  %58 = load ptr, ptr %57, align 8
  call void %52(ptr noundef %6, ptr noundef %58)
  %59 = load ptr, ptr %3, align 8
  %60 = getelementptr inbounds %struct._cms_iccprofile_struct, ptr %59, i32 0, i32 22
  %61 = load i32, ptr %4, align 4
  %62 = sext i32 %61 to i64
  %63 = getelementptr inbounds [100 x ptr], ptr %60, i64 0, i64 %62
  store ptr null, ptr %63, align 8
  br label %64

64:                                               ; preds = %41, %32
  br label %65

65:                                               ; preds = %64, %22
  br label %66

66:                                               ; preds = %65, %2
  ret void
}

; Function Attrs: nounwind uwtable
define hidden i32 @_cmsSearchTag(ptr noundef %0, i32 noundef %1, i32 noundef %2) #0 {
  %4 = alloca i32, align 4
  %5 = alloca ptr, align 8
  %6 = alloca i32, align 4
  %7 = alloca i32, align 4
  %8 = alloca i32, align 4
  %9 = alloca i32, align 4
  store ptr %0, ptr %5, align 8
  store i32 %1, ptr %6, align 4
  store i32 %2, ptr %7, align 4
  br label %10

10:                                               ; preds = %34, %3
  %11 = load ptr, ptr %5, align 8
  %12 = load i32, ptr %6, align 4
  %13 = call i32 @SearchOneTag(ptr noundef %11, i32 noundef %12)
  store i32 %13, ptr %8, align 4
  %14 = load i32, ptr %8, align 4
  %15 = icmp slt i32 %14, 0
  br i1 %15, label %16, label %17

16:                                               ; preds = %10
  store i32 -1, ptr %4, align 4
  br label %39

17:                                               ; preds = %10
  %18 = load i32, ptr %7, align 4
  %19 = icmp ne i32 %18, 0
  br i1 %19, label %22, label %20

20:                                               ; preds = %17
  %21 = load i32, ptr %8, align 4
  store i32 %21, ptr %4, align 4
  br label %39

22:                                               ; preds = %17
  %23 = load ptr, ptr %5, align 8
  %24 = getelementptr inbounds %struct._cms_iccprofile_struct, ptr %23, i32 0, i32 18
  %25 = load i32, ptr %8, align 4
  %26 = sext i32 %25 to i64
  %27 = getelementptr inbounds [100 x i32], ptr %24, i64 0, i64 %26
  %28 = load i32, ptr %27, align 4
  store i32 %28, ptr %9, align 4
  %29 = load i32, ptr %9, align 4
  %30 = icmp ne i32 %29, 0
  br i1 %30, label %31, label %33

31:                                               ; preds = %22
  %32 = load i32, ptr %9, align 4
  store i32 %32, ptr %6, align 4
  br label %33

33:                                               ; preds = %31, %22
  br label %34

34:                                               ; preds = %33
  %35 = load i32, ptr %9, align 4
  %36 = icmp ne i32 %35, 0
  br i1 %36, label %10, label %37, !llvm.loop !8

37:                                               ; preds = %34
  %38 = load i32, ptr %8, align 4
  store i32 %38, ptr %4, align 4
  br label %39

39:                                               ; preds = %37, %20, %16
  %40 = load i32, ptr %4, align 4
  ret i32 %40
}

; Function Attrs: nounwind uwtable
define internal i32 @_cmsNewTag(ptr noundef %0, i32 noundef %1, ptr noundef %2) #0 {
  %4 = alloca i32, align 4
  %5 = alloca ptr, align 8
  %6 = alloca i32, align 4
  %7 = alloca ptr, align 8
  %8 = alloca i32, align 4
  store ptr %0, ptr %5, align 8
  store i32 %1, ptr %6, align 4
  store ptr %2, ptr %7, align 8
  %9 = load ptr, ptr %5, align 8
  %10 = load i32, ptr %6, align 4
  %11 = call i32 @_cmsSearchTag(ptr noundef %9, i32 noundef %10, i32 noundef 0)
  store i32 %11, ptr %8, align 4
  %12 = load i32, ptr %8, align 4
  %13 = icmp sge i32 %12, 0
  br i1 %13, label %14, label %19

14:                                               ; preds = %3
  %15 = load ptr, ptr %5, align 8
  %16 = load i32, ptr %8, align 4
  call void @_cmsDeleteTagByPos(ptr noundef %15, i32 noundef %16)
  %17 = load i32, ptr %8, align 4
  %18 = load ptr, ptr %7, align 8
  store i32 %17, ptr %18, align 4
  br label %37

19:                                               ; preds = %3
  %20 = load ptr, ptr %5, align 8
  %21 = getelementptr inbounds %struct._cms_iccprofile_struct, ptr %20, i32 0, i32 16
  %22 = load i32, ptr %21, align 4
  %23 = icmp uge i32 %22, 100
  br i1 %23, label %24, label %28

24:                                               ; preds = %19
  %25 = load ptr, ptr %5, align 8
  %26 = getelementptr inbounds %struct._cms_iccprofile_struct, ptr %25, i32 0, i32 1
  %27 = load ptr, ptr %26, align 8
  call void (ptr, i32, ptr, ...) @cmsSignalError(ptr noundef %27, i32 noundef 2, ptr noundef @.str.12, i32 noundef 100)
  store i32 0, ptr %4, align 4
  br label %38

28:                                               ; preds = %19
  %29 = load ptr, ptr %5, align 8
  %30 = getelementptr inbounds %struct._cms_iccprofile_struct, ptr %29, i32 0, i32 16
  %31 = load i32, ptr %30, align 4
  %32 = load ptr, ptr %7, align 8
  store i32 %31, ptr %32, align 4
  %33 = load ptr, ptr %5, align 8
  %34 = getelementptr inbounds %struct._cms_iccprofile_struct, ptr %33, i32 0, i32 16
  %35 = load i32, ptr %34, align 4
  %36 = add i32 %35, 1
  store i32 %36, ptr %34, align 4
  br label %37

37:                                               ; preds = %28, %14
  store i32 1, ptr %4, align 4
  br label %38

38:                                               ; preds = %37, %24
  %39 = load i32, ptr %4, align 4
  ret i32 %39
}

; Function Attrs: nounwind uwtable
define hidden i32 @cmsWriteRawTag(ptr noundef %0, i32 noundef %1, ptr noundef %2, i32 noundef %3) #0 {
  %5 = alloca i32, align 4
  %6 = alloca ptr, align 8
  %7 = alloca i32, align 4
  %8 = alloca ptr, align 8
  %9 = alloca i32, align 4
  %10 = alloca ptr, align 8
  %11 = alloca i32, align 4
  store ptr %0, ptr %6, align 8
  store i32 %1, ptr %7, align 4
  store ptr %2, ptr %8, align 8
  store i32 %3, ptr %9, align 4
  %12 = load ptr, ptr %6, align 8
  store ptr %12, ptr %10, align 8
  %13 = load ptr, ptr %10, align 8
  %14 = getelementptr inbounds %struct._cms_iccprofile_struct, ptr %13, i32 0, i32 1
  %15 = load ptr, ptr %14, align 8
  %16 = load ptr, ptr %10, align 8
  %17 = getelementptr inbounds %struct._cms_iccprofile_struct, ptr %16, i32 0, i32 25
  %18 = load ptr, ptr %17, align 8
  %19 = call i32 @_cmsLockMutex(ptr noundef %15, ptr noundef %18)
  %20 = icmp ne i32 %19, 0
  br i1 %20, label %22, label %21

21:                                               ; preds = %4
  store i32 0, ptr %5, align 4
  br label %88

22:                                               ; preds = %4
  %23 = load ptr, ptr %10, align 8
  %24 = load i32, ptr %7, align 4
  %25 = call i32 @_cmsNewTag(ptr noundef %23, i32 noundef %24, ptr noundef %11)
  %26 = icmp ne i32 %25, 0
  br i1 %26, label %34, label %27

27:                                               ; preds = %22
  %28 = load ptr, ptr %10, align 8
  %29 = getelementptr inbounds %struct._cms_iccprofile_struct, ptr %28, i32 0, i32 1
  %30 = load ptr, ptr %29, align 8
  %31 = load ptr, ptr %10, align 8
  %32 = getelementptr inbounds %struct._cms_iccprofile_struct, ptr %31, i32 0, i32 25
  %33 = load ptr, ptr %32, align 8
  call void @_cmsUnlockMutex(ptr noundef %30, ptr noundef %33)
  store i32 0, ptr %5, align 4
  br label %88

34:                                               ; preds = %22
  %35 = load ptr, ptr %10, align 8
  %36 = getelementptr inbounds %struct._cms_iccprofile_struct, ptr %35, i32 0, i32 21
  %37 = load i32, ptr %11, align 4
  %38 = sext i32 %37 to i64
  %39 = getelementptr inbounds [100 x i32], ptr %36, i64 0, i64 %38
  store i32 1, ptr %39, align 4
  %40 = load i32, ptr %7, align 4
  %41 = load ptr, ptr %10, align 8
  %42 = getelementptr inbounds %struct._cms_iccprofile_struct, ptr %41, i32 0, i32 17
  %43 = load i32, ptr %11, align 4
  %44 = sext i32 %43 to i64
  %45 = getelementptr inbounds [100 x i32], ptr %42, i64 0, i64 %44
  store i32 %40, ptr %45, align 4
  %46 = load ptr, ptr %10, align 8
  %47 = getelementptr inbounds %struct._cms_iccprofile_struct, ptr %46, i32 0, i32 18
  %48 = load i32, ptr %11, align 4
  %49 = sext i32 %48 to i64
  %50 = getelementptr inbounds [100 x i32], ptr %47, i64 0, i64 %49
  store i32 0, ptr %50, align 4
  %51 = load ptr, ptr %10, align 8
  %52 = getelementptr inbounds %struct._cms_iccprofile_struct, ptr %51, i32 0, i32 1
  %53 = load ptr, ptr %52, align 8
  %54 = load ptr, ptr %8, align 8
  %55 = load i32, ptr %9, align 4
  %56 = call ptr @_cmsDupMem(ptr noundef %53, ptr noundef %54, i32 noundef %55)
  %57 = load ptr, ptr %10, align 8
  %58 = getelementptr inbounds %struct._cms_iccprofile_struct, ptr %57, i32 0, i32 22
  %59 = load i32, ptr %11, align 4
  %60 = sext i32 %59 to i64
  %61 = getelementptr inbounds [100 x ptr], ptr %58, i64 0, i64 %60
  store ptr %56, ptr %61, align 8
  %62 = load i32, ptr %9, align 4
  %63 = load ptr, ptr %10, align 8
  %64 = getelementptr inbounds %struct._cms_iccprofile_struct, ptr %63, i32 0, i32 19
  %65 = load i32, ptr %11, align 4
  %66 = sext i32 %65 to i64
  %67 = getelementptr inbounds [100 x i32], ptr %64, i64 0, i64 %66
  store i32 %62, ptr %67, align 4
  %68 = load ptr, ptr %10, align 8
  %69 = getelementptr inbounds %struct._cms_iccprofile_struct, ptr %68, i32 0, i32 1
  %70 = load ptr, ptr %69, align 8
  %71 = load ptr, ptr %10, align 8
  %72 = getelementptr inbounds %struct._cms_iccprofile_struct, ptr %71, i32 0, i32 25
  %73 = load ptr, ptr %72, align 8
  call void @_cmsUnlockMutex(ptr noundef %70, ptr noundef %73)
  %74 = load ptr, ptr %10, align 8
  %75 = getelementptr inbounds %struct._cms_iccprofile_struct, ptr %74, i32 0, i32 22
  %76 = load i32, ptr %11, align 4
  %77 = sext i32 %76 to i64
  %78 = getelementptr inbounds [100 x ptr], ptr %75, i64 0, i64 %77
  %79 = load ptr, ptr %78, align 8
  %80 = icmp eq ptr %79, null
  br i1 %80, label %81, label %87

81:                                               ; preds = %34
  %82 = load ptr, ptr %10, align 8
  %83 = getelementptr inbounds %struct._cms_iccprofile_struct, ptr %82, i32 0, i32 17
  %84 = load i32, ptr %11, align 4
  %85 = sext i32 %84 to i64
  %86 = getelementptr inbounds [100 x i32], ptr %83, i64 0, i64 %85
  store i32 0, ptr %86, align 4
  store i32 0, ptr %5, align 4
  br label %88

87:                                               ; preds = %34
  store i32 1, ptr %5, align 4
  br label %88

88:                                               ; preds = %87, %81, %27, %21
  %89 = load i32, ptr %5, align 4
  ret i32 %89
}