; Function Attrs: nounwind uwtable
define hidden range(i32 0, 2) i32 @cmsWriteRawTag(ptr nocapture noundef %0, i32 noundef %1, ptr noundef %2, i32 noundef %3) local_unnamed_addr #0 {
  %5 = alloca %struct._cms_typehandler_struct, align 8
  %6 = getelementptr inbounds i8, ptr %0, i64 8
  %7 = load ptr, ptr %6, align 8
  %8 = getelementptr inbounds i8, ptr %0, i64 3752
  %9 = load ptr, ptr %8, align 8
  %10 = tail call i32 @_cmsLockMutex(ptr noundef %7, ptr noundef %9) #19
  %.not = icmp eq i32 %10, 0
  br i1 %.not, label %68, label %11

11:                                               ; preds = %4
  %12 = getelementptr inbounds i8, ptr %0, i64 144
  %13 = getelementptr inbounds i8, ptr %0, i64 140
  %14 = load i32, ptr %13, align 4
  %15 = icmp sgt i32 %14, 0
  %wide.trip.count.i.i.i = zext nneg i32 %14 to i64
  br i1 %15, label %.lr.ph.i.us.i.i, label %_cmsSearchTag.exit.thread.i

.lr.ph.i.us.i.i:                                  ; preds = %11, %19
  %indvars.iv.i.us.i.i = phi i64 [ %indvars.iv.next.i.us.i.i, %19 ], [ 0, %11 ]
  %16 = getelementptr inbounds [100 x i32], ptr %12, i64 0, i64 %indvars.iv.i.us.i.i
  %17 = load i32, ptr %16, align 4
  %18 = icmp eq i32 %17, %1
  br i1 %18, label %_cmsSearchTag.exit.i, label %19

19:                                               ; preds = %.lr.ph.i.us.i.i
  %indvars.iv.next.i.us.i.i = add nuw nsw i64 %indvars.iv.i.us.i.i, 1
  %exitcond.not.i.us.i.i = icmp eq i64 %indvars.iv.next.i.us.i.i, %wide.trip.count.i.i.i
  br i1 %exitcond.not.i.us.i.i, label %_cmsSearchTag.exit.thread.i, label %.lr.ph.i.us.i.i, !llvm.loop !8

_cmsSearchTag.exit.i:                             ; preds = %.lr.ph.i.us.i.i
  %20 = trunc nuw nsw i64 %indvars.iv.i.us.i.i to i32
  call void @llvm.lifetime.start.p0(i64 56, ptr nonnull %5)
  %21 = getelementptr inbounds i8, ptr %0, i64 2144
  %22 = and i64 %indvars.iv.i.us.i.i, 4294967295
  %23 = getelementptr inbounds [100 x ptr], ptr %21, i64 0, i64 %22
  %24 = load ptr, ptr %23, align 8
  %.not.i.i = icmp eq ptr %24, null
  br i1 %.not.i.i, label %_cmsDeleteTagByPos.exit.i, label %25

25:                                               ; preds = %_cmsSearchTag.exit.i
  %26 = getelementptr inbounds i8, ptr %0, i64 1744
  %27 = getelementptr inbounds [100 x i32], ptr %26, i64 0, i64 %22
  %28 = load i32, ptr %27, align 4
  %.not17.i.i = icmp eq i32 %28, 0
  br i1 %.not17.i.i, label %31, label %29

29:                                               ; preds = %25
  %30 = load ptr, ptr %6, align 8
  tail call void @_cmsFree(ptr noundef %30, ptr noundef nonnull %24) #19
  br label %_cmsDeleteTagByPos.exit.i

31:                                               ; preds = %25
  %32 = getelementptr inbounds i8, ptr %0, i64 2944
  %33 = getelementptr inbounds [100 x ptr], ptr %32, i64 0, i64 %22
  %34 = load ptr, ptr %33, align 8
  %.not18.i.i = icmp eq ptr %34, null
  br i1 %.not18.i.i, label %_cmsDeleteTagByPos.exit.i, label %35

35:                                               ; preds = %31
  call void @llvm.memcpy.p0.p0.i64(ptr noundef nonnull align 8 dereferenceable(56) %5, ptr noundef nonnull align 8 dereferenceable(56) %34, i64 56, i1 false)
  %36 = load ptr, ptr %6, align 8
  %37 = getelementptr inbounds i8, ptr %5, i64 40
  store ptr %36, ptr %37, align 8
  %38 = getelementptr inbounds i8, ptr %0, i64 76
  %39 = load i32, ptr %38, align 4
  %40 = getelementptr inbounds i8, ptr %5, i64 48
  store i32 %39, ptr %40, align 8
  %41 = getelementptr inbounds i8, ptr %5, i64 32
  %42 = load ptr, ptr %41, align 8
  call void %42(ptr noundef nonnull %5, ptr noundef nonnull %24) #19
  store ptr null, ptr %23, align 8
  br label %_cmsDeleteTagByPos.exit.i

_cmsDeleteTagByPos.exit.i:                        ; preds = %35, %31, %29, %_cmsSearchTag.exit.i
  call void @llvm.lifetime.end.p0(i64 56, ptr nonnull %5)
  br label %50

_cmsSearchTag.exit.thread.i:                      ; preds = %19, %11
  %43 = icmp ugt i32 %14, 99
  br i1 %43, label %46, label %44

44:                                               ; preds = %_cmsSearchTag.exit.thread.i
  %45 = add nuw nsw i32 %14, 1
  store i32 %45, ptr %13, align 4
  br label %50

46:                                               ; preds = %_cmsSearchTag.exit.thread.i
  %47 = load ptr, ptr %6, align 8
  tail call void (ptr, i32, ptr, ...) @cmsSignalError(ptr noundef %47, i32 noundef 2, ptr noundef nonnull @.str.12, i32 noundef 100) #19
  %48 = load ptr, ptr %6, align 8
  %49 = load ptr, ptr %8, align 8
  tail call void @_cmsUnlockMutex(ptr noundef %48, ptr noundef %49) #19
  br label %68

50:                                               ; preds = %44, %_cmsDeleteTagByPos.exit.i
  %.025.ph = phi i32 [ %14, %44 ], [ %20, %_cmsDeleteTagByPos.exit.i ]
  %51 = getelementptr inbounds i8, ptr %0, i64 1744
  %52 = sext i32 %.025.ph to i64
  %53 = getelementptr inbounds [100 x i32], ptr %51, i64 0, i64 %52
  store i32 1, ptr %53, align 4
  %54 = getelementptr inbounds [100 x i32], ptr %12, i64 0, i64 %52
  store i32 %1, ptr %54, align 4
  %55 = getelementptr inbounds i8, ptr %0, i64 544
  %56 = getelementptr inbounds [100 x i32], ptr %55, i64 0, i64 %52
  store i32 0, ptr %56, align 4
  %57 = load ptr, ptr %6, align 8
  %58 = call ptr @_cmsDupMem(ptr noundef %57, ptr noundef %2, i32 noundef %3) #19
  %59 = getelementptr inbounds i8, ptr %0, i64 2144
  %60 = getelementptr inbounds [100 x ptr], ptr %59, i64 0, i64 %52
  store ptr %58, ptr %60, align 8
  %61 = getelementptr inbounds i8, ptr %0, i64 944
  %62 = getelementptr inbounds [100 x i32], ptr %61, i64 0, i64 %52
  store i32 %3, ptr %62, align 4
  %63 = load ptr, ptr %6, align 8
  %64 = load ptr, ptr %8, align 8
  call void @_cmsUnlockMutex(ptr noundef %63, ptr noundef %64) #19
  %65 = load ptr, ptr %60, align 8
  %66 = icmp eq ptr %65, null
  br i1 %66, label %67, label %68

67:                                               ; preds = %50
  store i32 0, ptr %54, align 4
  br label %68

68:                                               ; preds = %50, %4, %67, %46
  %.0 = phi i32 [ 0, %67 ], [ 0, %46 ], [ 0, %4 ], [ 1, %50 ]
  ret i32 %.0
}